target datalayout = "e-m:e-p270:32:32-p271:32:32-p272:64:64-i64:64-i128:128-f80:128-n8:16:32:64-S128"
target triple = "x86_64-pc-linux-gnu"

%struct.lv_subject_t = type { %struct.lv_ll_t, %union.lv_subject_value_t, %union.lv_subject_value_t, ptr, i32 }
%struct.lv_ll_t = type { i32, ptr, ptr }
%union.lv_subject_value_t = type { ptr }
%struct._lv_observer_t = type { ptr, ptr, ptr, ptr, i8 }

; Function Attrs: nounwind uwtable
define internal void @label_text_observer_cb(ptr noundef %0, ptr noundef %1) #0 {
  %3 = alloca ptr, align 8
  %4 = alloca ptr, align 8
  %5 = alloca ptr, align 8
  store ptr %0, ptr %3, align 8, !tbaa !17
  store ptr %1, ptr %4, align 8, !tbaa !3
  call void @llvm.lifetime.start.p0(i64 8, ptr %5) #6
  %6 = load ptr, ptr %3, align 8, !tbaa !17
  %7 = getelementptr inbounds nuw %struct._lv_observer_t, ptr %6, i32 0, i32 3
  %8 = load ptr, ptr %7, align 8, !tbaa !19
  store ptr %8, ptr %5, align 8, !tbaa !12
  %9 = load ptr, ptr %5, align 8, !tbaa !12
  %10 = icmp eq ptr %9, null
  br i1 %10, label %11, label %18

11:                                               ; preds = %2
  %12 = load ptr, ptr %3, align 8, !tbaa !17
  %13 = getelementptr inbounds nuw %struct._lv_observer_t, ptr %12, i32 0, i32 2
  %14 = load ptr, ptr %13, align 8, !tbaa !21
  %15 = load ptr, ptr %4, align 8, !tbaa !3
  %16 = getelementptr inbounds nuw %struct.lv_subject_t, ptr %15, i32 0, i32 1
  %17 = load ptr, ptr %16, align 8, !tbaa !9
  call void @lv_label_set_text(ptr noundef %14, ptr noundef %17)
  br label %41

18:                                               ; preds = %2
  %19 = load ptr, ptr %4, align 8, !tbaa !3
  %20 = getelementptr inbounds nuw %struct.lv_subject_t, ptr %19, i32 0, i32 4
  %21 = load i32, ptr %20, align 8
  %22 = and i32 %21, 15
  switch i32 %22, label %39 [
    i32 2, label %23
    i32 6, label %31
    i32 3, label %31
  ]

23:                                               ; preds = %18
  %24 = load ptr, ptr %3, align 8, !tbaa !17
  %25 = getelementptr inbounds nuw %struct._lv_observer_t, ptr %24, i32 0, i32 2
  %26 = load ptr, ptr %25, align 8, !tbaa !21
  %27 = load ptr, ptr %5, align 8, !tbaa !12
  %28 = load ptr, ptr %4, align 8, !tbaa !3
  %29 = getelementptr inbounds nuw %struct.lv_subject_t, ptr %28, i32 0, i32 1
  %30 = load i32, ptr %29, align 8, !tbaa !9
  call void (ptr, ptr, ...) @lv_label_set_text_fmt(ptr noundef %26, ptr noundef %27, i32 noundef %30)
  br label %40

31:                                               ; preds = %18, %18
  %32 = load ptr, ptr %3, align 8, !tbaa !17
  %33 = getelementptr inbounds nuw %struct._lv_observer_t, ptr %32, i32 0, i32 2
  %34 = load ptr, ptr %33, align 8, !tbaa !21
  %35 = load ptr, ptr %5, align 8, !tbaa !12
  %36 = load ptr, ptr %4, align 8, !tbaa !3
  %37 = getelementptr inbounds nuw %struct.lv_subject_t, ptr %36, i32 0, i32 1
  %38 = load ptr, ptr %37, align 8, !tbaa !9
  call void (ptr, ptr, ...) @lv_label_set_text_fmt(ptr noundef %34, ptr noundef %35, ptr noundef %38)
  br label %40

39:                                               ; preds = %18
  br label %40

40:                                               ; preds = %39, %31, %23
  br label %41

41:                                               ; preds = %40, %11
  call void @llvm.lifetime.end.p0(i64 8, ptr %5) #6
  ret void
}