; Function Attrs: nounwind uwtable
define internal void @label_text_observer_cb(ptr noundef readonly captures(none) %0, ptr noundef readonly captures(none) %1) #0 {
  %3 = getelementptr inbounds nuw i8, ptr %0, i64 24
  %4 = load ptr, ptr %3, align 8, !tbaa !13
  %5 = icmp eq ptr %4, null
  br i1 %5, label %6, label %11

6:                                                ; preds = %2
  %7 = getelementptr inbounds nuw i8, ptr %0, i64 16
  %8 = load ptr, ptr %7, align 8, !tbaa !14
  %9 = getelementptr inbounds nuw i8, ptr %1, i64 24
  %10 = load ptr, ptr %9, align 8, !tbaa !3
  tail call void @lv_label_set_text(ptr noundef %8, ptr noundef %10) #9
  br label %25

11:                                               ; preds = %2
  %12 = getelementptr inbounds nuw i8, ptr %1, i64 48
  %13 = load i32, ptr %12, align 8
  %14 = and i32 %13, 15
  switch i32 %14, label %25 [
    i32 2, label %15
    i32 6, label %20
    i32 3, label %20
  ]

15:                                               ; preds = %11
  %16 = getelementptr inbounds nuw i8, ptr %0, i64 16
  %17 = load ptr, ptr %16, align 8, !tbaa !14
  %18 = getelementptr inbounds nuw i8, ptr %1, i64 24
  %19 = load i32, ptr %18, align 8, !tbaa !3
  tail call void (ptr, ptr, ...) @lv_label_set_text_fmt(ptr noundef %17, ptr noundef nonnull %4, i32 noundef %19) #9
  br label %25

20:                                               ; preds = %11, %11
  %21 = getelementptr inbounds nuw i8, ptr %0, i64 16
  %22 = load ptr, ptr %21, align 8, !tbaa !14
  %23 = getelementptr inbounds nuw i8, ptr %1, i64 24
  %24 = load ptr, ptr %23, align 8, !tbaa !3
  tail call void (ptr, ptr, ...) @lv_label_set_text_fmt(ptr noundef %22, ptr noundef nonnull %4, ptr noundef %24) #9
  br label %25

25:                                               ; preds = %15, %20, %11, %6
  ret void
}